target datalayout = "e-m:e-p270:32:32-p271:32:32-p272:64:64-i64:64-i128:128-f80:128-n8:16:32:64-S128"
target triple = "x86_64-pc-linux-gnu"

%"class.icu_77::CollationWeights" = type { i32, [5 x i32], [5 x i32], [7 x %"struct.icu_77::CollationWeights::WeightRange"], i32, i32 }
%"struct.icu_77::CollationWeights::WeightRange" = type { i32, i32, i32, i32 }

; Function Attrs: inlinehint mustprogress nounwind uwtable
define linkonce_odr noundef i32 @_ZNK6icu_7716CollationWeights10countBytesEi(ptr noundef nonnull align 4 dereferenceable(164) %0, i32 noundef %1) #4 comdat align 2 {
  %3 = alloca ptr, align 8
  %4 = alloca i32, align 4
  store ptr %0, ptr %3, align 8, !tbaa !3
  store i32 %1, ptr %4, align 4, !tbaa !13
  %5 = load ptr, ptr %3, align 8
  %6 = getelementptr inbounds nuw %"class.icu_77::CollationWeights", ptr %5, i32 0, i32 2
  %7 = load i32, ptr %4, align 4, !tbaa !13
  %8 = sext i32 %7 to i64
  %9 = getelementptr inbounds [5 x i32], ptr %6, i64 0, i64 %8
  %10 = load i32, ptr %9, align 4, !tbaa !13
  %11 = getelementptr inbounds nuw %"class.icu_77::CollationWeights", ptr %5, i32 0, i32 1
  %12 = load i32, ptr %4, align 4, !tbaa !13
  %13 = sext i32 %12 to i64
  %14 = getelementptr inbounds [5 x i32], ptr %11, i64 0, i64 %13
  %15 = load i32, ptr %14, align 4, !tbaa !13
  %16 = sub i32 %10, %15
  %17 = add i32 %16, 1
  ret i32 %17
}

; Function Attrs: inlinehint mustprogress nounwind uwtable
define internal noundef i32 @_ZN6icu_77L14setWeightTrailEjij(i32 noundef %0, i32 noundef %1, i32 noundef %2) #4 {
  %4 = alloca i32, align 4
  %5 = alloca i32, align 4
  %6 = alloca i32, align 4
  store i32 %0, ptr %4, align 4, !tbaa !13
  store i32 %1, ptr %5, align 4, !tbaa !13
  store i32 %2, ptr %6, align 4, !tbaa !13
  %7 = load i32, ptr %5, align 4, !tbaa !13
  %8 = sub nsw i32 4, %7
  %9 = mul nsw i32 8, %8
  store i32 %9, ptr %5, align 4, !tbaa !13
  %10 = load i32, ptr %4, align 4, !tbaa !13
  %11 = load i32, ptr %5, align 4, !tbaa !13
  %12 = shl i32 -256, %11
  %13 = and i32 %10, %12
  %14 = load i32, ptr %6, align 4, !tbaa !13
  %15 = load i32, ptr %5, align 4, !tbaa !13
  %16 = shl i32 %14, %15
  %17 = or i32 %13, %16
  ret i32 %17
}

; Function Attrs: mustprogress uwtable
define void @_ZNK6icu_7716CollationWeights13lengthenRangeERNS0_11WeightRangeE(ptr noundef nonnull align 4 dereferenceable(164) %0, ptr noundef nonnull align 4 dereferenceable(16) %1) #2 align 2 {
  %3 = alloca ptr, align 8
  %4 = alloca ptr, align 8
  %5 = alloca i32, align 4
  store ptr %0, ptr %3, align 8, !tbaa !3
  store ptr %1, ptr %4, align 8, !tbaa !19
  %6 = load ptr, ptr %3, align 8
  call void @llvm.lifetime.start.p0(i64 4, ptr %5) #8
  %7 = load ptr, ptr %4, align 8, !tbaa !19
  %8 = getelementptr inbounds nuw %"struct.icu_77::CollationWeights::WeightRange", ptr %7, i32 0, i32 2
  %9 = load i32, ptr %8, align 4, !tbaa !21
  %10 = add nsw i32 %9, 1
  store i32 %10, ptr %5, align 4, !tbaa !13
  %11 = load ptr, ptr %4, align 8, !tbaa !19
  %12 = getelementptr inbounds nuw %"struct.icu_77::CollationWeights::WeightRange", ptr %11, i32 0, i32 0
  %13 = load i32, ptr %12, align 4, !tbaa !23
  %14 = load i32, ptr %5, align 4, !tbaa !13
  %15 = getelementptr inbounds nuw %"class.icu_77::CollationWeights", ptr %6, i32 0, i32 1
  %16 = load i32, ptr %5, align 4, !tbaa !13
  %17 = sext i32 %16 to i64
  %18 = getelementptr inbounds [5 x i32], ptr %15, i64 0, i64 %17
  %19 = load i32, ptr %18, align 4, !tbaa !13
  %20 = call noundef i32 @_ZN6icu_77L14setWeightTrailEjij(i32 noundef %13, i32 noundef %14, i32 noundef %19)
  %21 = load ptr, ptr %4, align 8, !tbaa !19
  %22 = getelementptr inbounds nuw %"struct.icu_77::CollationWeights::WeightRange", ptr %21, i32 0, i32 0
  store i32 %20, ptr %22, align 4, !tbaa !23
  %23 = load ptr, ptr %4, align 8, !tbaa !19
  %24 = getelementptr inbounds nuw %"struct.icu_77::CollationWeights::WeightRange", ptr %23, i32 0, i32 1
  %25 = load i32, ptr %24, align 4, !tbaa !24
  %26 = load i32, ptr %5, align 4, !tbaa !13
  %27 = getelementptr inbounds nuw %"class.icu_77::CollationWeights", ptr %6, i32 0, i32 2
  %28 = load i32, ptr %5, align 4, !tbaa !13
  %29 = sext i32 %28 to i64
  %30 = getelementptr inbounds [5 x i32], ptr %27, i64 0, i64 %29
  %31 = load i32, ptr %30, align 4, !tbaa !13
  %32 = call noundef i32 @_ZN6icu_77L14setWeightTrailEjij(i32 noundef %25, i32 noundef %26, i32 noundef %31)
  %33 = load ptr, ptr %4, align 8, !tbaa !19
  %34 = getelementptr inbounds nuw %"struct.icu_77::CollationWeights::WeightRange", ptr %33, i32 0, i32 1
  store i32 %32, ptr %34, align 4, !tbaa !24
  %35 = load i32, ptr %5, align 4, !tbaa !13
  %36 = call noundef i32 @_ZNK6icu_7716CollationWeights10countBytesEi(ptr noundef nonnull align 4 dereferenceable(164) %6, i32 noundef %35)
  %37 = load ptr, ptr %4, align 8, !tbaa !19
  %38 = getelementptr inbounds nuw %"struct.icu_77::CollationWeights::WeightRange", ptr %37, i32 0, i32 3
  %39 = load i32, ptr %38, align 4, !tbaa !25
  %40 = mul nsw i32 %39, %36
  store i32 %40, ptr %38, align 4, !tbaa !25
  %41 = load i32, ptr %5, align 4, !tbaa !13
  %42 = load ptr, ptr %4, align 8, !tbaa !19
  %43 = getelementptr inbounds nuw %"struct.icu_77::CollationWeights::WeightRange", ptr %42, i32 0, i32 2
  store i32 %41, ptr %43, align 4, !tbaa !21
  call void @llvm.lifetime.end.p0(i64 4, ptr %5) #8
  ret void
}