; Function Attrs: mustprogress nofree norecurse nosync nounwind willreturn memory(argmem: readwrite) uwtable
define void @_ZNK6icu_7716CollationWeights13lengthenRangeERNS0_11WeightRangeE(ptr noundef nonnull readonly align 4 captures(none) dereferenceable(164) %0, ptr noundef nonnull align 4 captures(none) dereferenceable(16) %1) local_unnamed_addr #4 align 2 {
  %3 = getelementptr inbounds nuw i8, ptr %1, i64 8
  %4 = load i32, ptr %3, align 4, !tbaa !14
  %5 = add nsw i32 %4, 1
  %6 = load i32, ptr %1, align 4, !tbaa !16
  %7 = getelementptr inbounds nuw i8, ptr %0, i64 4
  %8 = sext i32 %5 to i64
  %9 = getelementptr inbounds [5 x i32], ptr %7, i64 0, i64 %8
  %10 = load i32, ptr %9, align 4, !tbaa !9
  %11 = shl i32 %5, 3
  %12 = sub i32 32, %11
  %13 = shl i32 -256, %12
  %14 = and i32 %13, %6
  %15 = shl i32 %10, %12
  %16 = or i32 %14, %15
  store i32 %16, ptr %1, align 4, !tbaa !16
  %17 = getelementptr inbounds nuw i8, ptr %1, i64 4
  %18 = load i32, ptr %17, align 4, !tbaa !17
  %19 = getelementptr inbounds nuw i8, ptr %0, i64 24
  %20 = getelementptr inbounds [5 x i32], ptr %19, i64 0, i64 %8
  %21 = load i32, ptr %20, align 4, !tbaa !9
  %22 = and i32 %13, %18
  %23 = shl i32 %21, %12
  %24 = or i32 %23, %22
  store i32 %24, ptr %17, align 4, !tbaa !17
  %25 = load i32, ptr %20, align 4, !tbaa !9
  %26 = load i32, ptr %9, align 4, !tbaa !9
  %27 = add i32 %25, 1
  %28 = sub i32 %27, %26
  %29 = getelementptr inbounds nuw i8, ptr %1, i64 12
  %30 = load i32, ptr %29, align 4, !tbaa !18
  %31 = mul nsw i32 %30, %28
  store i32 %31, ptr %29, align 4, !tbaa !18
  store i32 %5, ptr %3, align 4, !tbaa !14
  ret void
}